; Function Attrs: mustprogress uwtable
define noundef zeroext i1 @_ZNK8QuantLib18ImpliedStdDevQuote7isValidEv(ptr noundef nonnull align 8 dereferenceable(96) %this) unnamed_addr #8 align 2 {
entry:
  %price_ = getelementptr inbounds nuw i8, ptr %this, i64 80
  %0 = load ptr, ptr %price_, align 8, !tbaa !58
  %cmp.not.i.i = icmp eq ptr %0, null
  br i1 %cmp.not.i.i, label %cond.false.i.i, label %_ZNK8QuantLib6HandleINS_5QuoteEE5emptyEv.exit, !prof !76

cond.false.i.i:                                   ; preds = %entry
  tail call void @_ZN5boost16assertion_failedEPKcS1_S1_l(ptr noundef nonnull @.str.6, ptr noundef nonnull @__PRETTY_FUNCTION__._ZNK5boost10shared_ptrIN8QuantLib6HandleINS1_5QuoteEE4LinkEEptEv, ptr noundef nonnull @.str.7, i64 noundef 784)
  %.pre.i.i = load ptr, ptr %price_, align 8, !tbaa !58
  br label %_ZNK8QuantLib6HandleINS_5QuoteEE5emptyEv.exit

_ZNK8QuantLib6HandleINS_5QuoteEE5emptyEv.exit:    ; preds = %entry, %cond.false.i.i
  %1 = phi ptr [ %0, %entry ], [ %.pre.i.i, %cond.false.i.i ]
  %h_.i.i = getelementptr inbounds nuw i8, ptr %1, i64 112
  %2 = load ptr, ptr %h_.i.i, align 8, !tbaa !77
  %cmp.i.i.i = icmp eq ptr %2, null
  br i1 %cmp.i.i.i, label %land.end, label %land.lhs.true

land.lhs.true:                                    ; preds = %_ZNK8QuantLib6HandleINS_5QuoteEE5emptyEv.exit
  %forward_ = getelementptr inbounds nuw i8, ptr %this, i64 64
  %3 = load ptr, ptr %forward_, align 8, !tbaa !58
  %cmp.not.i.i1 = icmp eq ptr %3, null
  br i1 %cmp.not.i.i1, label %cond.false.i.i4, label %_ZNK8QuantLib6HandleINS_5QuoteEE5emptyEv.exit6, !prof !76

cond.false.i.i4:                                  ; preds = %land.lhs.true
  tail call void @_ZN5boost16assertion_failedEPKcS1_S1_l(ptr noundef nonnull @.str.6, ptr noundef nonnull @__PRETTY_FUNCTION__._ZNK5boost10shared_ptrIN8QuantLib6HandleINS1_5QuoteEE4LinkEEptEv, ptr noundef nonnull @.str.7, i64 noundef 784)
  %.pre.i.i5 = load ptr, ptr %forward_, align 8, !tbaa !58
  br label %_ZNK8QuantLib6HandleINS_5QuoteEE5emptyEv.exit6

_ZNK8QuantLib6HandleINS_5QuoteEE5emptyEv.exit6:   ; preds = %land.lhs.true, %cond.false.i.i4
  %4 = phi ptr [ %3, %land.lhs.true ], [ %.pre.i.i5, %cond.false.i.i4 ]
  %h_.i.i2 = getelementptr inbounds nuw i8, ptr %4, i64 112
  %5 = load ptr, ptr %h_.i.i2, align 8, !tbaa !77
  %cmp.i.i.i3 = icmp eq ptr %5, null
  br i1 %cmp.i.i.i3, label %land.end, label %land.lhs.true3

land.lhs.true3:                                   ; preds = %_ZNK8QuantLib6HandleINS_5QuoteEE5emptyEv.exit6
  %call5 = tail call noundef nonnull align 8 dereferenceable(16) ptr @_ZNK8QuantLib6HandleINS_5QuoteEEptEv(ptr noundef nonnull align 8 dereferenceable(16) %price_)
  %6 = load ptr, ptr %call5, align 8, !tbaa !77
  %cmp.not.i = icmp eq ptr %6, null
  br i1 %cmp.not.i, label %cond.false.i, label %_ZNK5boost10shared_ptrIN8QuantLib5QuoteEEptEv.exit, !prof !76

cond.false.i:                                     ; preds = %land.lhs.true3
  tail call void @_ZN5boost16assertion_failedEPKcS1_S1_l(ptr noundef nonnull @.str.6, ptr noundef nonnull @__PRETTY_FUNCTION__._ZNK5boost10shared_ptrIN8QuantLib5QuoteEEptEv, ptr noundef nonnull @.str.7, i64 noundef 784)
  %.pre.i = load ptr, ptr %call5, align 8, !tbaa !77
  br label %_ZNK5boost10shared_ptrIN8QuantLib5QuoteEEptEv.exit

_ZNK5boost10shared_ptrIN8QuantLib5QuoteEEptEv.exit: ; preds = %land.lhs.true3, %cond.false.i
  %7 = phi ptr [ %6, %land.lhs.true3 ], [ %.pre.i, %cond.false.i ]
  %vtable = load ptr, ptr %7, align 8, !tbaa !33
  %vfn = getelementptr inbounds i8, ptr %vtable, i64 24
  %8 = load ptr, ptr %vfn, align 8
  %call7 = tail call noundef zeroext i1 %8(ptr noundef nonnull align 8 dereferenceable(8) %7)
  br i1 %call7, label %land.rhs, label %land.end

land.rhs:                                         ; preds = %_ZNK5boost10shared_ptrIN8QuantLib5QuoteEEptEv.exit
  %call9 = tail call noundef nonnull align 8 dereferenceable(16) ptr @_ZNK8QuantLib6HandleINS_5QuoteEEptEv(ptr noundef nonnull align 8 dereferenceable(16) %forward_)
  %9 = load ptr, ptr %call9, align 8, !tbaa !77
  %cmp.not.i7 = icmp eq ptr %9, null
  br i1 %cmp.not.i7, label %cond.false.i8, label %_ZNK5boost10shared_ptrIN8QuantLib5QuoteEEptEv.exit10, !prof !76

cond.false.i8:                                    ; preds = %land.rhs
  tail call void @_ZN5boost16assertion_failedEPKcS1_S1_l(ptr noundef nonnull @.str.6, ptr noundef nonnull @__PRETTY_FUNCTION__._ZNK5boost10shared_ptrIN8QuantLib5QuoteEEptEv, ptr noundef nonnull @.str.7, i64 noundef 784)
  %.pre.i9 = load ptr, ptr %call9, align 8, !tbaa !77
  br label %_ZNK5boost10shared_ptrIN8QuantLib5QuoteEEptEv.exit10

_ZNK5boost10shared_ptrIN8QuantLib5QuoteEEptEv.exit10: ; preds = %land.rhs, %cond.false.i8
  %10 = phi ptr [ %9, %land.rhs ], [ %.pre.i9, %cond.false.i8 ]
  %vtable11 = load ptr, ptr %10, align 8, !tbaa !33
  %vfn12 = getelementptr inbounds i8, ptr %vtable11, i64 24
  %11 = load ptr, ptr %vfn12, align 8
  %call13 = tail call noundef zeroext i1 %11(ptr noundef nonnull align 8 dereferenceable(8) %10)
  br label %land.end

land.end:                                         ; preds = %_ZNK5boost10shared_ptrIN8QuantLib5QuoteEEptEv.exit10, %_ZNK5boost10shared_ptrIN8QuantLib5QuoteEEptEv.exit, %_ZNK8QuantLib6HandleINS_5QuoteEE5emptyEv.exit6, %_ZNK8QuantLib6HandleINS_5QuoteEE5emptyEv.exit
  %12 = phi i1 [ false, %_ZNK5boost10shared_ptrIN8QuantLib5QuoteEEptEv.exit ], [ false, %_ZNK8QuantLib6HandleINS_5QuoteEE5emptyEv.exit6 ], [ false, %_ZNK8QuantLib6HandleINS_5QuoteEE5emptyEv.exit ], [ %call13, %_ZNK5boost10shared_ptrIN8QuantLib5QuoteEEptEv.exit10 ]
  ret i1 %12
}